target datalayout = "e-m:e-p270:32:32-p271:32:32-p272:64:64-i64:64-i128:128-f80:128-n8:16:32:64-S128"
target triple = "x86_64-pc-linux-gnu"

%struct.Agobj_s = type { %struct.Agtag_s, ptr }
%struct.Agtag_s = type { i32, i64 }
%struct.Agraphinfo_t = type { %struct.Agrec_s, ptr, ptr, %struct.boxf, [4 x %struct.pointf_s], i8, i8, i8, i8, i32, double, double, i16, ptr, ptr, ptr, ptr, i32, ptr, ptr, ptr, ptr, i16, i16, i32, ptr, ptr, ptr, ptr, ptr, i32, ptr, ptr, %struct.nlist_t, ptr, ptr, i32, i32, i8, i8, i32, i32, i32, ptr, ptr, ptr, ptr, i8, i8, i8, i8, i8 }
%struct.Agrec_s = type { ptr, ptr }
%struct.boxf = type { %struct.pointf_s, %struct.pointf_s }
%struct.pointf_s = type { double, double }
%struct.nlist_t = type { ptr, i64 }
%struct.layout_t = type { double, double, double, double, %struct.pointf_s, %struct.pointf_s, %struct.pointf_s, i8, i8, i8, i32, ptr, ptr }
%struct.Agnodeinfo_t = type { %struct.Agrec_s, ptr, ptr, %struct.pointf_s, double, double, %struct.boxf, double, double, double, double, double, ptr, ptr, ptr, i8, i8, i8, i8, i32, i32, i32, ptr, double, i8, i8, ptr, ptr, i8, i64, i8, i8, i8, ptr, ptr, %struct.elist, %struct.elist, %struct.elist, %struct.elist, %struct.elist, ptr, i32, ptr, i32, i32, double, %struct.elist, %struct.elist, %struct.elist, %struct.elist, ptr, i32, i32, i32, [1 x double] }
%struct.elist = type { ptr, i64 }

@Ndim = external global i16, align 2
@.str = private unnamed_addr constant [13 x i8] c"Agedgeinfo_t\00", align 1

; Function Attrs: nounwind uwtable
define internal void @cluster_init_graph(ptr noundef %0) #0 {
  %2 = alloca ptr, align 8
  %3 = alloca ptr, align 8
  %4 = alloca ptr, align 8
  store ptr %0, ptr %2, align 8, !tbaa !3
  call void @llvm.lifetime.start.p0(i64 8, ptr %3) #12
  call void @llvm.lifetime.start.p0(i64 8, ptr %4) #12
  %5 = load ptr, ptr %2, align 8, !tbaa !3
  call void @setEdgeType(ptr noundef %5, i32 noundef 2)
  %6 = load ptr, ptr %2, align 8, !tbaa !3
  %7 = getelementptr inbounds nuw %struct.Agobj_s, ptr %6, i32 0, i32 1
  %8 = load ptr, ptr %7, align 8, !tbaa !8
  %9 = getelementptr inbounds nuw %struct.Agraphinfo_t, ptr %8, i32 0, i32 22
  store i16 2, ptr %9, align 8, !tbaa !50
  store i16 2, ptr @Ndim, align 2, !tbaa !51
  %10 = load ptr, ptr %2, align 8, !tbaa !3
  %11 = call ptr @agfstnode(ptr noundef %10)
  store ptr %11, ptr %3, align 8, !tbaa !35
  br label %12

12:                                               ; preds = %17, %1
  %13 = load ptr, ptr %3, align 8, !tbaa !35
  %14 = icmp ne ptr %13, null
  br i1 %14, label %15, label %21

15:                                               ; preds = %12
  %16 = load ptr, ptr %3, align 8, !tbaa !35
  call void @neato_init_node(ptr noundef %16)
  br label %17

17:                                               ; preds = %15
  %18 = load ptr, ptr %2, align 8, !tbaa !3
  %19 = load ptr, ptr %3, align 8, !tbaa !35
  %20 = call ptr @agnxtnode(ptr noundef %18, ptr noundef %19)
  store ptr %20, ptr %3, align 8, !tbaa !35
  br label %12, !llvm.loop !52

21:                                               ; preds = %12
  %22 = load ptr, ptr %2, align 8, !tbaa !3
  %23 = call ptr @agfstnode(ptr noundef %22)
  store ptr %23, ptr %3, align 8, !tbaa !35
  br label %24

24:                                               ; preds = %43, %21
  %25 = load ptr, ptr %3, align 8, !tbaa !35
  %26 = icmp ne ptr %25, null
  br i1 %26, label %27, label %47

27:                                               ; preds = %24
  %28 = load ptr, ptr %2, align 8, !tbaa !3
  %29 = load ptr, ptr %3, align 8, !tbaa !35
  %30 = call ptr @agfstout(ptr noundef %28, ptr noundef %29)
  store ptr %30, ptr %4, align 8, !tbaa !53
  br label %31

31:                                               ; preds = %38, %27
  %32 = load ptr, ptr %4, align 8, !tbaa !53
  %33 = icmp ne ptr %32, null
  br i1 %33, label %34, label %42

34:                                               ; preds = %31
  %35 = load ptr, ptr %4, align 8, !tbaa !53
  %36 = call ptr @agbindrec(ptr noundef %35, ptr noundef @.str, i32 noundef 240, i32 noundef 1)
  %37 = load ptr, ptr %4, align 8, !tbaa !53
  call void @common_init_edge(ptr noundef %37)
  br label %38

38:                                               ; preds = %34
  %39 = load ptr, ptr %2, align 8, !tbaa !3
  %40 = load ptr, ptr %4, align 8, !tbaa !53
  %41 = call ptr @agnxtout(ptr noundef %39, ptr noundef %40)
  store ptr %41, ptr %4, align 8, !tbaa !53
  br label %31, !llvm.loop !54

42:                                               ; preds = %31
  br label %43

43:                                               ; preds = %42
  %44 = load ptr, ptr %2, align 8, !tbaa !3
  %45 = load ptr, ptr %3, align 8, !tbaa !35
  %46 = call ptr @agnxtnode(ptr noundef %44, ptr noundef %45)
  store ptr %46, ptr %3, align 8, !tbaa !35
  br label %24, !llvm.loop !55

47:                                               ; preds = %24
  call void @llvm.lifetime.end.p0(i64 8, ptr %4) #12
  call void @llvm.lifetime.end.p0(i64 8, ptr %3) #12
  ret void
}

; Function Attrs: nounwind uwtable
define void @osage_layout(ptr noundef %0) #0 {
  %2 = alloca ptr, align 8
  %3 = alloca ptr, align 8
  %4 = alloca i32, align 4
  store ptr %0, ptr %2, align 8, !tbaa !3
  %5 = load ptr, ptr %2, align 8, !tbaa !3
  call void @cluster_init_graph(ptr noundef %5)
  %6 = load ptr, ptr %2, align 8, !tbaa !3
  %7 = load ptr, ptr %2, align 8, !tbaa !3
  call void @mkClusters(ptr noundef %6, ptr noundef null, ptr noundef %7)
  %8 = load ptr, ptr %2, align 8, !tbaa !3
  call void @layout(ptr noundef %8, i32 noundef 0)
  %9 = load ptr, ptr %2, align 8, !tbaa !3
  call void @reposition(ptr noundef %9, i32 noundef 0)
  %10 = load ptr, ptr %2, align 8, !tbaa !3
  %11 = getelementptr inbounds nuw %struct.Agobj_s, ptr %10, i32 0, i32 1
  %12 = load ptr, ptr %11, align 8, !tbaa !8
  %13 = getelementptr inbounds nuw %struct.Agraphinfo_t, ptr %12, i32 0, i32 1
  %14 = load ptr, ptr %13, align 8, !tbaa !14
  %15 = getelementptr inbounds nuw %struct.layout_t, ptr %14, i32 0, i32 10
  %16 = load i32, ptr %15, align 4, !tbaa !33
  %17 = icmp ne i32 %16, 0
  br i1 %17, label %18, label %57

18:                                               ; preds = %1
  call void @llvm.lifetime.start.p0(i64 8, ptr %3) #12
  %19 = load ptr, ptr %2, align 8, !tbaa !3
  %20 = call ptr @agfstnode(ptr noundef %19)
  store ptr %20, ptr %3, align 8, !tbaa !35
  br label %21

21:                                               ; preds = %51, %18
  %22 = load ptr, ptr %3, align 8, !tbaa !35
  %23 = icmp ne ptr %22, null
  br i1 %23, label %24, label %55

24:                                               ; preds = %21
  %25 = load ptr, ptr %3, align 8, !tbaa !35
  %26 = getelementptr inbounds nuw %struct.Agobj_s, ptr %25, i32 0, i32 1
  %27 = load ptr, ptr %26, align 8, !tbaa !8
  %28 = getelementptr inbounds nuw %struct.Agnodeinfo_t, ptr %27, i32 0, i32 3
  %29 = getelementptr inbounds nuw %struct.pointf_s, ptr %28, i32 0, i32 0
  %30 = load double, ptr %29, align 8, !tbaa !36
  %31 = fdiv double %30, 7.200000e+01
  %32 = load ptr, ptr %3, align 8, !tbaa !35
  %33 = getelementptr inbounds nuw %struct.Agobj_s, ptr %32, i32 0, i32 1
  %34 = load ptr, ptr %33, align 8, !tbaa !8
  %35 = getelementptr inbounds nuw %struct.Agnodeinfo_t, ptr %34, i32 0, i32 22
  %36 = load ptr, ptr %35, align 8, !tbaa !43
  %37 = getelementptr inbounds double, ptr %36, i64 0
  store double %31, ptr %37, align 8, !tbaa !44
  %38 = load ptr, ptr %3, align 8, !tbaa !35
  %39 = getelementptr inbounds nuw %struct.Agobj_s, ptr %38, i32 0, i32 1
  %40 = load ptr, ptr %39, align 8, !tbaa !8
  %41 = getelementptr inbounds nuw %struct.Agnodeinfo_t, ptr %40, i32 0, i32 3
  %42 = getelementptr inbounds nuw %struct.pointf_s, ptr %41, i32 0, i32 1
  %43 = load double, ptr %42, align 8, !tbaa !45
  %44 = fdiv double %43, 7.200000e+01
  %45 = load ptr, ptr %3, align 8, !tbaa !35
  %46 = getelementptr inbounds nuw %struct.Agobj_s, ptr %45, i32 0, i32 1
  %47 = load ptr, ptr %46, align 8, !tbaa !8
  %48 = getelementptr inbounds nuw %struct.Agnodeinfo_t, ptr %47, i32 0, i32 22
  %49 = load ptr, ptr %48, align 8, !tbaa !43
  %50 = getelementptr inbounds double, ptr %49, i64 1
  store double %44, ptr %50, align 8, !tbaa !44
  br label %51

51:                                               ; preds = %24
  %52 = load ptr, ptr %2, align 8, !tbaa !3
  %53 = load ptr, ptr %3, align 8, !tbaa !35
  %54 = call ptr @agnxtnode(ptr noundef %52, ptr noundef %53)
  store ptr %54, ptr %3, align 8, !tbaa !35
  br label %21, !llvm.loop !46

55:                                               ; preds = %21
  %56 = load ptr, ptr %2, align 8, !tbaa !3
  call void @spline_edges0(ptr noundef %56, i1 noundef zeroext true)
  call void @llvm.lifetime.end.p0(i64 8, ptr %3) #12
  br label %72

57:                                               ; preds = %1
  call void @llvm.lifetime.start.p0(i64 4, ptr %4) #12
  %58 = load ptr, ptr %2, align 8, !tbaa !3
  %59 = getelementptr inbounds nuw %struct.Agobj_s, ptr %58, i32 0, i32 1
  %60 = load ptr, ptr %59, align 8, !tbaa !8
  %61 = getelementptr inbounds nuw %struct.Agraphinfo_t, ptr %60, i32 0, i32 12
  %62 = load i16, ptr %61, align 8, !tbaa !48
  %63 = zext i16 %62 to i32
  %64 = and i32 %63, 14
  store i32 %64, ptr %4, align 4, !tbaa !49
  %65 = load i32, ptr %4, align 4, !tbaa !49
  %66 = icmp ne i32 %65, 0
  br i1 %66, label %67, label %71

67:                                               ; preds = %57
  %68 = load ptr, ptr %2, align 8, !tbaa !3
  %69 = load i32, ptr %4, align 4, !tbaa !49
  %70 = call i32 @spline_edges1(ptr noundef %68, i32 noundef %69)
  br label %71

71:                                               ; preds = %67, %57
  call void @llvm.lifetime.end.p0(i64 4, ptr %4) #12
  br label %72

72:                                               ; preds = %71, %55
  %73 = load ptr, ptr %2, align 8, !tbaa !3
  call void @dotneato_postprocess(ptr noundef %73)
  ret void
}