; Function Attrs: nounwind uwtable
define void @osage_layout(ptr noundef %0) local_unnamed_addr #0 {
  tail call void @setEdgeType(ptr noundef %0, i32 noundef 2) #15
  %2 = getelementptr inbounds nuw i8, ptr %0, i64 16
  %3 = load ptr, ptr %2, align 8, !tbaa !3
  %4 = getelementptr inbounds nuw i8, ptr %3, i64 232
  store i16 2, ptr %4, align 8, !tbaa !12
  store i16 2, ptr @Ndim, align 2, !tbaa !32
  %5 = tail call ptr @agfstnode(ptr noundef %0) #15
  %.not21.i = icmp eq ptr %5, null
  br i1 %.not21.i, label %._crit_edge.i, label %.lr.ph.i

.lr.ph.i:                                         ; preds = %1, %.lr.ph.i
  %.01822.i = phi ptr [ %6, %.lr.ph.i ], [ %5, %1 ]
  tail call void @neato_init_node(ptr noundef nonnull %.01822.i) #15
  %6 = tail call ptr @agnxtnode(ptr noundef %0, ptr noundef nonnull %.01822.i) #15
  %.not.i = icmp eq ptr %6, null
  br i1 %.not.i, label %._crit_edge.i, label %.lr.ph.i, !llvm.loop !33

._crit_edge.i:                                    ; preds = %.lr.ph.i, %1
  %7 = tail call ptr @agfstnode(ptr noundef %0) #15
  %.not1928.i = icmp eq ptr %7, null
  br i1 %.not1928.i, label %cluster_init_graph.exit, label %.lr.ph31.i

.lr.ph31.i:                                       ; preds = %._crit_edge.i, %._crit_edge27.i
  %.129.i = phi ptr [ %11, %._crit_edge27.i ], [ %7, %._crit_edge.i ]
  %8 = tail call ptr @agfstout(ptr noundef %0, ptr noundef nonnull %.129.i) #15
  %.not2023.i = icmp eq ptr %8, null
  br i1 %.not2023.i, label %._crit_edge27.i, label %.lr.ph26.i

.lr.ph26.i:                                       ; preds = %.lr.ph31.i, %.lr.ph26.i
  %.024.i = phi ptr [ %10, %.lr.ph26.i ], [ %8, %.lr.ph31.i ]
  %9 = tail call ptr @agbindrec(ptr noundef nonnull %.024.i, ptr noundef nonnull @.str, i32 noundef 240, i32 noundef 1) #15
  tail call void @common_init_edge(ptr noundef nonnull %.024.i) #15
  %10 = tail call ptr @agnxtout(ptr noundef %0, ptr noundef nonnull %.024.i) #15
  %.not20.i = icmp eq ptr %10, null
  br i1 %.not20.i, label %._crit_edge27.i, label %.lr.ph26.i, !llvm.loop !35

._crit_edge27.i:                                  ; preds = %.lr.ph26.i, %.lr.ph31.i
  %11 = tail call ptr @agnxtnode(ptr noundef %0, ptr noundef nonnull %.129.i) #15
  %.not19.i = icmp eq ptr %11, null
  br i1 %.not19.i, label %cluster_init_graph.exit, label %.lr.ph31.i, !llvm.loop !36

cluster_init_graph.exit:                          ; preds = %._crit_edge27.i, %._crit_edge.i
  tail call fastcc void @mkClusters(ptr noundef %0, ptr noundef null)
  tail call fastcc void @layout(ptr noundef %0, i32 noundef 0)
  tail call fastcc void @reposition(ptr noundef %0, i32 noundef 0)
  %12 = load ptr, ptr %2, align 8, !tbaa !3
  %13 = getelementptr inbounds nuw i8, ptr %12, i64 16
  %14 = load ptr, ptr %13, align 8, !tbaa !37
  %15 = getelementptr inbounds nuw i8, ptr %14, i64 84
  %16 = load i32, ptr %15, align 4, !tbaa !38
  %.not = icmp eq i32 %16, 0
  br i1 %.not, label %31, label %17

17:                                               ; preds = %cluster_init_graph.exit
  %18 = tail call ptr @agfstnode(ptr noundef nonnull %0) #15
  %.not2122 = icmp eq ptr %18, null
  br i1 %.not2122, label %._crit_edge, label %.lr.ph

.lr.ph:                                           ; preds = %17, %.lr.ph
  %.023 = phi ptr [ %30, %.lr.ph ], [ %18, %17 ]
  %19 = getelementptr inbounds nuw i8, ptr %.023, i64 16
  %20 = load ptr, ptr %19, align 8, !tbaa !3
  %21 = getelementptr inbounds nuw i8, ptr %20, i64 32
  %22 = load double, ptr %21, align 8, !tbaa !40
  %23 = fdiv double %22, 7.200000e+01
  %24 = getelementptr inbounds nuw i8, ptr %20, i64 176
  %25 = load ptr, ptr %24, align 8, !tbaa !47
  store double %23, ptr %25, align 8, !tbaa !48
  %26 = getelementptr inbounds nuw i8, ptr %20, i64 40
  %27 = load double, ptr %26, align 8, !tbaa !49
  %28 = fdiv double %27, 7.200000e+01
  %29 = getelementptr inbounds nuw i8, ptr %25, i64 8
  store double %28, ptr %29, align 8, !tbaa !48
  %30 = tail call ptr @agnxtnode(ptr noundef nonnull %0, ptr noundef nonnull %.023) #15
  %.not21 = icmp eq ptr %30, null
  br i1 %.not21, label %._crit_edge, label %.lr.ph, !llvm.loop !50

._crit_edge:                                      ; preds = %.lr.ph, %17
  tail call void @spline_edges0(ptr noundef nonnull %0, i1 noundef zeroext true) #15
  br label %38

31:                                               ; preds = %cluster_init_graph.exit
  %32 = getelementptr inbounds nuw i8, ptr %12, i64 152
  %33 = load i16, ptr %32, align 8, !tbaa !51
  %34 = and i16 %33, 14
  %.not20 = icmp eq i16 %34, 0
  br i1 %.not20, label %38, label %35

35:                                               ; preds = %31
  %36 = zext nneg i16 %34 to i32
  %37 = tail call i32 @spline_edges1(ptr noundef nonnull %0, i32 noundef %36) #15
  br label %38

38:                                               ; preds = %31, %35, %._crit_edge
  tail call void @dotneato_postprocess(ptr noundef nonnull %0) #15
  ret void
}